target datalayout = "e-m:e-p270:32:32-p271:32:32-p272:64:64-i64:64-i128:128-f80:128-n8:16:32:64-S128"
target triple = "x86_64-pc-linux-gnu"

@.str = private unnamed_addr constant [36 x i8] c"FATAL ERROR %s -> in %s @ in %s:%d \00", align 1
@.str.2 = private unnamed_addr constant [122 x i8] c"generated/home/dtcxzyw/WorkSpace/Projects/compilers/llvm-opt-benchmark/bench/c3c/c3c/src/compiler/llvm_codegen_builtins.c\00", align 1
@.str.3 = private unnamed_addr constant [22 x i8] c"Should be unreachable\00", align 1
@__func__.ordering_to_llvm = private unnamed_addr constant [17 x i8] c"ordering_to_llvm\00", align 1

; Function Attrs: nounwind uwtable
define internal i32 @ordering_to_llvm(i32 noundef %0) #0 {
  %2 = alloca i32, align 4
  %3 = alloca i32, align 4
  store i32 %0, ptr %3, align 4
  %4 = load i32, ptr %3, align 4
  switch i32 %4, label %12 [
    i32 0, label %5
    i32 1, label %6
    i32 2, label %7
    i32 3, label %8
    i32 4, label %9
    i32 5, label %10
    i32 6, label %11
  ]

5:                                                ; preds = %1
  store i32 0, ptr %2, align 4
  br label %15

6:                                                ; preds = %1
  store i32 1, ptr %2, align 4
  br label %15

7:                                                ; preds = %1
  store i32 2, ptr %2, align 4
  br label %15

8:                                                ; preds = %1
  store i32 4, ptr %2, align 4
  br label %15

9:                                                ; preds = %1
  store i32 5, ptr %2, align 4
  br label %15

10:                                               ; preds = %1
  store i32 6, ptr %2, align 4
  br label %15

11:                                               ; preds = %1
  store i32 7, ptr %2, align 4
  br label %15

12:                                               ; preds = %1
  br label %13

13:                                               ; preds = %12
  call void (ptr, ...) @error_exit(ptr noundef @.str, ptr noundef @.str.3, ptr noundef @__func__.ordering_to_llvm, ptr noundef @.str.2, i32 noundef 90) #9
  unreachable

14:                                               ; No predecessors!
  br label %15

15:                                               ; preds = %14, %11, %10, %9, %8, %7, %6, %5
  %16 = load i32, ptr %2, align 4
  ret i32 %16
}