; Function Attrs: nounwind uwtable
define internal fastcc noundef i32 @ordering_to_llvm(i32 noundef %0) unnamed_addr #0 {
  %2 = icmp ult i32 %0, 7
  br i1 %2, label %switch.lookup, label %3

3:                                                ; preds = %1
  tail call void (ptr, ...) @error_exit(ptr noundef nonnull @.str, ptr noundef nonnull @.str.3, ptr noundef nonnull @__func__.ordering_to_llvm, ptr noundef nonnull @.str.2, i32 noundef 90) #9
  unreachable

switch.lookup:                                    ; preds = %1
  %4 = zext nneg i32 %0 to i64
  %switch.gep = getelementptr inbounds [7 x i32], ptr @switch.table.ordering_to_llvm, i64 0, i64 %4
  %switch.load = load i32, ptr %switch.gep, align 4
  ret i32 %switch.load
}